target datalayout = "e-m:e-p270:32:32-p271:32:32-p272:64:64-i64:64-i128:128-f80:128-n8:16:32:64-S128"
target triple = "x86_64-unknown-linux-gnu"

%class.btTriangleMeshShape = type { %class.btConcaveShape.base, %class.btVector3, %class.btVector3, ptr }
%class.btConcaveShape.base = type <{ %class.btCollisionShape, float }>
%class.btCollisionShape = type { ptr, i32, ptr, i32, i32 }
%class.btVector3 = type { [4 x float] }
%struct.FilteredCallback = type { %class.btInternalTriangleIndexCallback, ptr, %class.btVector3, %class.btVector3 }
%class.btInternalTriangleIndexCallback = type { ptr }

@_ZTV31btInternalTriangleIndexCallback = external unnamed_addr constant { [5 x ptr] }, align 8

; Function Attrs: mustprogress nounwind uwtable
define linkonce_odr dso_local void @_ZN31btInternalTriangleIndexCallbackC2Ev(ptr noundef nonnull align 8 dereferenceable(8) %this) unnamed_addr #1 comdat align 2 {
entry:
  %this.addr = alloca ptr, align 8
  store ptr %this, ptr %this.addr, align 8
  %this1 = load ptr, ptr %this.addr, align 8
  store ptr getelementptr inbounds ({ [5 x ptr] }, ptr @_ZTV31btInternalTriangleIndexCallback, i32 0, i32 0, i32 2), ptr %this1, align 8
  ret void
}

; Function Attrs: mustprogress nounwind uwtable
define internal void @_ZZNK19btTriangleMeshShape19processAllTrianglesEP18btTriangleCallbackRK9btVector3S4_EN16FilteredCallbackD2Ev(ptr noundef nonnull align 8 dereferenceable(48) %this) unnamed_addr #1 align 2 {
entry:
  %this.addr = alloca ptr, align 8
  store ptr %this, ptr %this.addr, align 8
  %this1 = load ptr, ptr %this.addr, align 8
  call void @_ZN31btInternalTriangleIndexCallbackD2Ev(ptr noundef nonnull align 8 dereferenceable(8) %this1) #10
  ret void
}

; Function Attrs: mustprogress nounwind uwtable
define internal void @_ZZNK19btTriangleMeshShape19processAllTrianglesEP18btTriangleCallbackRK9btVector3S4_EN16FilteredCallbackC2ES1_S4_S4_(ptr noundef nonnull align 8 dereferenceable(48) %this, ptr noundef %callback, ptr noundef nonnull align 4 dereferenceable(16) %aabbMin, ptr noundef nonnull align 4 dereferenceable(16) %aabbMax) unnamed_addr #1 align 2 {
entry:
  %this.addr = alloca ptr, align 8
  %callback.addr = alloca ptr, align 8
  %aabbMin.addr = alloca ptr, align 8
  %aabbMax.addr = alloca ptr, align 8
  store ptr %this, ptr %this.addr, align 8
  store ptr %callback, ptr %callback.addr, align 8
  store ptr %aabbMin, ptr %aabbMin.addr, align 8
  store ptr %aabbMax, ptr %aabbMax.addr, align 8
  %this1 = load ptr, ptr %this.addr, align 8
  call void @_ZN31btInternalTriangleIndexCallbackC2Ev(ptr noundef nonnull align 8 dereferenceable(8) %this1) #10
  store ptr getelementptr inbounds ({ [5 x ptr] }, ptr @_ZTVZNK19btTriangleMeshShape19processAllTrianglesEP18btTriangleCallbackRK9btVector3S4_E16FilteredCallback, i32 0, i32 0, i32 2), ptr %this1, align 8
  %m_callback = getelementptr inbounds %struct.FilteredCallback, ptr %this1, i32 0, i32 1
  %0 = load ptr, ptr %callback.addr, align 8
  store ptr %0, ptr %m_callback, align 8
  %m_aabbMin = getelementptr inbounds %struct.FilteredCallback, ptr %this1, i32 0, i32 2
  %1 = load ptr, ptr %aabbMin.addr, align 8
  call void @llvm.memcpy.p0.p0.i64(ptr align 8 %m_aabbMin, ptr align 4 %1, i64 16, i1 false)
  %m_aabbMax = getelementptr inbounds %struct.FilteredCallback, ptr %this1, i32 0, i32 3
  %2 = load ptr, ptr %aabbMax.addr, align 8
  call void @llvm.memcpy.p0.p0.i64(ptr align 8 %m_aabbMax, ptr align 4 %2, i64 16, i1 false)
  ret void
}

; Function Attrs: mustprogress uwtable
define dso_local void @_ZNK19btTriangleMeshShape19processAllTrianglesEP18btTriangleCallbackRK9btVector3S4_(ptr noundef nonnull align 8 dereferenceable(80) %this, ptr noundef %callback, ptr noundef nonnull align 4 dereferenceable(16) %aabbMin, ptr noundef nonnull align 4 dereferenceable(16) %aabbMax) unnamed_addr #2 align 2 personality ptr @__gxx_personality_v0 {
entry:
  %this.addr = alloca ptr, align 8
  %callback.addr = alloca ptr, align 8
  %aabbMin.addr = alloca ptr, align 8
  %aabbMax.addr = alloca ptr, align 8
  %filterCallback = alloca %struct.FilteredCallback, align 8
  %exn.slot = alloca ptr, align 8
  %ehselector.slot = alloca i32, align 4
  store ptr %this, ptr %this.addr, align 8
  store ptr %callback, ptr %callback.addr, align 8
  store ptr %aabbMin, ptr %aabbMin.addr, align 8
  store ptr %aabbMax, ptr %aabbMax.addr, align 8
  %this1 = load ptr, ptr %this.addr, align 8
  %0 = load ptr, ptr %callback.addr, align 8
  %1 = load ptr, ptr %aabbMin.addr, align 8
  %2 = load ptr, ptr %aabbMax.addr, align 8
  call void @_ZZNK19btTriangleMeshShape19processAllTrianglesEP18btTriangleCallbackRK9btVector3S4_EN16FilteredCallbackC2ES1_S4_S4_(ptr noundef nonnull align 8 dereferenceable(48) %filterCallback, ptr noundef %0, ptr noundef nonnull align 4 dereferenceable(16) %1, ptr noundef nonnull align 4 dereferenceable(16) %2)
  %m_meshInterface = getelementptr inbounds %class.btTriangleMeshShape, ptr %this1, i32 0, i32 3
  %3 = load ptr, ptr %m_meshInterface, align 8
  %4 = load ptr, ptr %aabbMin.addr, align 8
  %5 = load ptr, ptr %aabbMax.addr, align 8
  %vtable = load ptr, ptr %3, align 8
  %vfn = getelementptr inbounds ptr, ptr %vtable, i64 2
  %6 = load ptr, ptr %vfn, align 8
  invoke void %6(ptr noundef nonnull align 8 dereferenceable(24) %3, ptr noundef %filterCallback, ptr noundef nonnull align 4 dereferenceable(16) %4, ptr noundef nonnull align 4 dereferenceable(16) %5)
          to label %invoke.cont unwind label %lpad

invoke.cont:                                      ; preds = %entry
  call void @_ZZNK19btTriangleMeshShape19processAllTrianglesEP18btTriangleCallbackRK9btVector3S4_EN16FilteredCallbackD2Ev(ptr noundef nonnull align 8 dereferenceable(48) %filterCallback) #10
  ret void

lpad:                                             ; preds = %entry
  %7 = landingpad { ptr, i32 }
          cleanup
  %8 = extractvalue { ptr, i32 } %7, 0
  store ptr %8, ptr %exn.slot, align 8
  %9 = extractvalue { ptr, i32 } %7, 1
  store i32 %9, ptr %ehselector.slot, align 4
  call void @_ZZNK19btTriangleMeshShape19processAllTrianglesEP18btTriangleCallbackRK9btVector3S4_EN16FilteredCallbackD2Ev(ptr noundef nonnull align 8 dereferenceable(48) %filterCallback) #10
  br label %eh.resume

eh.resume:                                        ; preds = %lpad
  %exn = load ptr, ptr %exn.slot, align 8
  %sel = load i32, ptr %ehselector.slot, align 4
  %lpad.val = insertvalue { ptr, i32 } poison, ptr %exn, 0
  %lpad.val2 = insertvalue { ptr, i32 } %lpad.val, i32 %sel, 1
  resume { ptr, i32 } %lpad.val2
}