; Function Attrs: mustprogress uwtable
define dso_local void @_ZNK19btTriangleMeshShape19processAllTrianglesEP18btTriangleCallbackRK9btVector3S4_(ptr nocapture noundef nonnull readonly align 8 dereferenceable(80) %this, ptr noundef %callback, ptr noundef nonnull align 4 dereferenceable(16) %aabbMin, ptr noundef nonnull align 4 dereferenceable(16) %aabbMax) unnamed_addr #6 align 2 personality ptr @__gxx_personality_v0 {
entry:
  %filterCallback = alloca %struct.FilteredCallback, align 8
  store ptr getelementptr inbounds ({ [5 x ptr] }, ptr @_ZTVZNK19btTriangleMeshShape19processAllTrianglesEP18btTriangleCallbackRK9btVector3S4_E16FilteredCallback, i64 0, i32 0, i64 2), ptr %filterCallback, align 8
  %m_callback.i = getelementptr inbounds i8, ptr %filterCallback, i64 8
  store ptr %callback, ptr %m_callback.i, align 8
  %m_aabbMin.i = getelementptr inbounds i8, ptr %filterCallback, i64 16
  call void @llvm.memcpy.p0.p0.i64(ptr noundef nonnull align 8 dereferenceable(16) %m_aabbMin.i, ptr noundef nonnull align 4 dereferenceable(16) %aabbMin, i64 16, i1 false)
  %m_aabbMax.i = getelementptr inbounds i8, ptr %filterCallback, i64 32
  call void @llvm.memcpy.p0.p0.i64(ptr noundef nonnull align 8 dereferenceable(16) %m_aabbMax.i, ptr noundef nonnull align 4 dereferenceable(16) %aabbMax, i64 16, i1 false)
  %m_meshInterface = getelementptr inbounds i8, ptr %this, i64 72
  %0 = load ptr, ptr %m_meshInterface, align 8
  %vtable = load ptr, ptr %0, align 8
  %vfn = getelementptr inbounds i8, ptr %vtable, i64 16
  %1 = load ptr, ptr %vfn, align 8
  invoke void %1(ptr noundef nonnull align 8 dereferenceable(24) %0, ptr noundef nonnull %filterCallback, ptr noundef nonnull align 4 dereferenceable(16) %aabbMin, ptr noundef nonnull align 4 dereferenceable(16) %aabbMax)
          to label %invoke.cont unwind label %lpad

invoke.cont:                                      ; preds = %entry
  call void @_ZN31btInternalTriangleIndexCallbackD2Ev(ptr noundef nonnull align 8 dereferenceable(8) %filterCallback) #14
  ret void

lpad:                                             ; preds = %entry
  %2 = landingpad { ptr, i32 }
          cleanup
  call void @_ZN31btInternalTriangleIndexCallbackD2Ev(ptr noundef nonnull align 8 dereferenceable(8) %filterCallback) #14
  resume { ptr, i32 } %2
}